; Function Attrs: mustprogress nofree norecurse nosync nounwind willreturn memory(readwrite, inaccessiblemem: none) uwtable
define hidden void @_ZN5zxing14DetectorResultC2ENS_3RefINS_9BitMatrixEEENS_8ArrayRefINS1_INS_11ResultPointEEEEEif(ptr noundef nonnull writeonly align 8 captures(none) dereferenceable(64) initializes((0, 12), (16, 44), (48, 64)) %0, ptr noundef readonly captures(none) %1, ptr noundef readonly captures(none) %2, i32 noundef %3, float noundef %4) unnamed_addr #0 align 2 personality ptr @__gxx_personality_v0 {
  %6 = getelementptr inbounds nuw i8, ptr %0, i64 8
  store i32 0, ptr %6, align 8, !tbaa !3
  store ptr getelementptr inbounds nuw inrange(-16, 16) (i8, ptr @_ZTVN5zxing14DetectorResultE, i64 16), ptr %0, align 8, !tbaa !8
  %7 = getelementptr inbounds nuw i8, ptr %0, i64 16
  store ptr null, ptr %7, align 8, !tbaa !10
  %8 = load ptr, ptr %1, align 8, !tbaa !10
  %.not.i.i = icmp eq ptr %8, null
  br i1 %.not.i.i, label %13, label %9

9:                                                ; preds = %5
  %10 = getelementptr inbounds nuw i8, ptr %8, i64 8
  %11 = load i32, ptr %10, align 8, !tbaa !3
  %12 = add i32 %11, 1
  store i32 %12, ptr %10, align 8, !tbaa !3
  br label %13

13:                                               ; preds = %5, %9
  store ptr %8, ptr %7, align 8, !tbaa !10
  %14 = getelementptr inbounds nuw i8, ptr %0, i64 24
  store ptr null, ptr %14, align 8, !tbaa !14
  %15 = getelementptr inbounds nuw i8, ptr %0, i64 32
  %16 = getelementptr inbounds nuw i8, ptr %0, i64 40
  store i32 0, ptr %16, align 8, !tbaa !3
  store ptr getelementptr inbounds nuw inrange(-16, 16) (i8, ptr @_ZTVN5zxing8ArrayRefINS_3RefINS_11ResultPointEEEEE, i64 16), ptr %15, align 8, !tbaa !8
  %17 = getelementptr inbounds nuw i8, ptr %0, i64 48
  store ptr null, ptr %17, align 8, !tbaa !17
  %18 = getelementptr inbounds nuw i8, ptr %2, i64 16
  %19 = load ptr, ptr %18, align 8, !tbaa !17
  %.not.i.i8 = icmp eq ptr %19, null
  br i1 %.not.i.i8, label %24, label %20

20:                                               ; preds = %13
  %21 = getelementptr inbounds nuw i8, ptr %19, i64 8
  %22 = load i32, ptr %21, align 8, !tbaa !3
  %23 = add i32 %22, 1
  store i32 %23, ptr %21, align 8, !tbaa !3
  br label %24

24:                                               ; preds = %20, %13
  store ptr %19, ptr %17, align 8, !tbaa !17
  %25 = getelementptr inbounds nuw i8, ptr %0, i64 56
  store i32 %3, ptr %25, align 8, !tbaa !20
  %26 = getelementptr inbounds nuw i8, ptr %0, i64 60
  store float %4, ptr %26, align 4, !tbaa !23
  ret void
}